target datalayout = "e-m:e-p270:32:32-p271:32:32-p272:64:64-i64:64-i128:128-f80:128-n8:16:32:64-S128"
target triple = "x86_64-pc-linux-gnu"

%"class.spacer::lemma_cluster" = type <{ ptr, %class.arith_util, %class.bv_util, i32, [4 x i8], %class.obj_ref, i32, [4 x i8], %class.vector, %"class.spacer::sem_matcher", i32, [4 x i8] }>
%class.arith_util = type { ptr, ptr }
%class.bv_util = type { %class.bv_recognizers, ptr, ptr }
%class.bv_recognizers = type { i32 }
%class.obj_ref = type { ptr, ptr }
%class.vector = type { ptr }
%"class.spacer::sem_matcher" = type { ptr, %class.arith_util, %class.ref_vector, ptr, %class.svector }
%class.ref_vector = type { %class.ref_vector_core }
%class.ref_vector_core = type { %class.ref_manager_wrapper, %class.ptr_vector }
%class.ref_manager_wrapper = type { ptr }
%class.ptr_vector = type { %class.vector.0 }
%class.vector.0 = type { ptr }
%class.svector = type { %class.vector.1 }
%class.vector.1 = type { ptr }
%class.ast = type { i32, i32, i32, i32 }

; Function Attrs: mustprogress nounwind uwtable
define linkonce_odr hidden void @_ZN3ast7inc_refEv(ptr noundef nonnull align 4 dereferenceable(16) %0) #5 comdat align 2 {
  %2 = alloca ptr, align 8
  store ptr %0, ptr %2, align 8, !tbaa !175
  %3 = load ptr, ptr %2, align 8
  %4 = getelementptr inbounds nuw %class.ast, ptr %3, i32 0, i32 2
  %5 = load i32, ptr %4, align 4, !tbaa !177
  %6 = add i32 %5, 1
  store i32 %6, ptr %4, align 4, !tbaa !177
  ret void
}

; Function Attrs: mustprogress uwtable
define linkonce_odr hidden void @_ZN11ast_manager7inc_refEP3ast(ptr noundef nonnull align 8 dereferenceable(976) %0, ptr noundef %1) #4 comdat align 2 {
  %3 = alloca ptr, align 8
  %4 = alloca ptr, align 8
  store ptr %0, ptr %3, align 8, !tbaa !10
  store ptr %1, ptr %4, align 8, !tbaa !175
  %5 = load ptr, ptr %4, align 8, !tbaa !175
  %6 = icmp ne ptr %5, null
  br i1 %6, label %7, label %9

7:                                                ; preds = %2
  %8 = load ptr, ptr %4, align 8, !tbaa !175
  call void @_ZN3ast7inc_refEv(ptr noundef nonnull align 4 dereferenceable(16) %8)
  br label %9

9:                                                ; preds = %7, %2
  ret void
}

; Function Attrs: mustprogress uwtable
define linkonce_odr hidden void @_ZN7obj_refI4expr11ast_managerE7inc_refEv(ptr noundef nonnull align 8 dereferenceable(16) %0) #4 comdat align 2 {
  %2 = alloca ptr, align 8
  store ptr %0, ptr %2, align 8, !tbaa !8
  %3 = load ptr, ptr %2, align 8
  %4 = getelementptr inbounds nuw %class.obj_ref, ptr %3, i32 0, i32 0
  %5 = load ptr, ptr %4, align 8, !tbaa !40
  %6 = icmp ne ptr %5, null
  br i1 %6, label %7, label %12

7:                                                ; preds = %1
  %8 = getelementptr inbounds nuw %class.obj_ref, ptr %3, i32 0, i32 1
  %9 = load ptr, ptr %8, align 8, !tbaa !39
  %10 = getelementptr inbounds nuw %class.obj_ref, ptr %3, i32 0, i32 0
  %11 = load ptr, ptr %10, align 8, !tbaa !40
  call void @_ZN11ast_manager7inc_refEP3ast(ptr noundef nonnull align 8 dereferenceable(976) %9, ptr noundef %11)
  br label %12

12:                                               ; preds = %7, %1
  ret void
}

; Function Attrs: mustprogress nounwind uwtable
define linkonce_odr hidden noundef ptr @_ZNK7obj_refI4expr11ast_managerEcvPS0_Ev(ptr noundef nonnull align 8 dereferenceable(16) %0) #5 comdat align 2 {
  %2 = alloca ptr, align 8
  store ptr %0, ptr %2, align 8, !tbaa !8
  %3 = load ptr, ptr %2, align 8
  %4 = getelementptr inbounds nuw %class.obj_ref, ptr %3, i32 0, i32 0
  %5 = load ptr, ptr %4, align 8, !tbaa !40
  ret ptr %5
}

; Function Attrs: mustprogress nounwind uwtable
define linkonce_odr hidden void @_ZN6vectorIN6spacer13lemma_cluster10lemma_infoELb1EjEC2Ev(ptr noundef nonnull align 8 dereferenceable(8) %0) unnamed_addr #5 comdat align 2 {
  %2 = alloca ptr, align 8
  store ptr %0, ptr %2, align 8, !tbaa !41
  %3 = load ptr, ptr %2, align 8
  %4 = getelementptr inbounds nuw %class.vector, ptr %3, i32 0, i32 0
  store ptr null, ptr %4, align 8, !tbaa !43
  ret void
}

; Function Attrs: mustprogress uwtable
define linkonce_odr hidden void @_ZN7obj_refI4expr11ast_managerEC2ERKS2_(ptr noundef nonnull align 8 dereferenceable(16) %0, ptr noundef nonnull align 8 dereferenceable(16) %1) unnamed_addr #4 comdat align 2 {
  %3 = alloca ptr, align 8
  %4 = alloca ptr, align 8
  store ptr %0, ptr %3, align 8, !tbaa !8
  store ptr %1, ptr %4, align 8, !tbaa !8
  %5 = load ptr, ptr %3, align 8
  %6 = getelementptr inbounds nuw %class.obj_ref, ptr %5, i32 0, i32 0
  %7 = load ptr, ptr %4, align 8, !tbaa !8
  %8 = getelementptr inbounds nuw %class.obj_ref, ptr %7, i32 0, i32 0
  %9 = load ptr, ptr %8, align 8, !tbaa !40
  store ptr %9, ptr %6, align 8, !tbaa !40
  %10 = getelementptr inbounds nuw %class.obj_ref, ptr %5, i32 0, i32 1
  %11 = load ptr, ptr %4, align 8, !tbaa !8
  %12 = getelementptr inbounds nuw %class.obj_ref, ptr %11, i32 0, i32 1
  %13 = load ptr, ptr %12, align 8, !tbaa !39
  store ptr %13, ptr %10, align 8, !tbaa !10
  call void @_ZN7obj_refI4expr11ast_managerE7inc_refEv(ptr noundef nonnull align 8 dereferenceable(16) %5)
  ret void
}

; Function Attrs: mustprogress nounwind uwtable
define linkonce_odr hidden noundef nonnull align 8 dereferenceable(976) ptr @_ZNK7obj_refI4expr11ast_managerE11get_managerEv(ptr noundef nonnull align 8 dereferenceable(16) %0) #5 comdat align 2 {
  %2 = alloca ptr, align 8
  store ptr %0, ptr %2, align 8, !tbaa !8
  %3 = load ptr, ptr %2, align 8
  %4 = getelementptr inbounds nuw %class.obj_ref, ptr %3, i32 0, i32 1
  %5 = load ptr, ptr %4, align 8, !tbaa !39
  ret ptr %5
}

; Function Attrs: mustprogress uwtable
define hidden void @_ZN6spacer13lemma_clusterC2ERK7obj_refI4expr11ast_managerE(ptr noundef nonnull align 8 dereferenceable(148) %0, ptr noundef nonnull align 8 dereferenceable(16) %1) unnamed_addr #4 align 2 personality ptr @__gxx_personality_v0 {
  %3 = alloca ptr, align 8
  %4 = alloca ptr, align 8
  %5 = alloca ptr, align 8
  %6 = alloca i32, align 4
  store ptr %0, ptr %3, align 8, !tbaa !3
  store ptr %1, ptr %4, align 8, !tbaa !8
  %7 = load ptr, ptr %3, align 8
  %8 = getelementptr inbounds nuw %"class.spacer::lemma_cluster", ptr %7, i32 0, i32 0
  %9 = load ptr, ptr %4, align 8, !tbaa !8
  %10 = call noundef nonnull align 8 dereferenceable(976) ptr @_ZNK7obj_refI4expr11ast_managerE11get_managerEv(ptr noundef nonnull align 8 dereferenceable(16) %9)
  store ptr %10, ptr %8, align 8, !tbaa !10
  %11 = getelementptr inbounds nuw %"class.spacer::lemma_cluster", ptr %7, i32 0, i32 1
  %12 = getelementptr inbounds nuw %"class.spacer::lemma_cluster", ptr %7, i32 0, i32 0
  %13 = load ptr, ptr %12, align 8, !tbaa !12
  call void @_ZN10arith_utilC1ER11ast_manager(ptr noundef nonnull align 8 dereferenceable(16) %11, ptr noundef nonnull align 8 dereferenceable(976) %13)
  %14 = getelementptr inbounds nuw %"class.spacer::lemma_cluster", ptr %7, i32 0, i32 2
  %15 = getelementptr inbounds nuw %"class.spacer::lemma_cluster", ptr %7, i32 0, i32 0
  %16 = load ptr, ptr %15, align 8, !tbaa !12
  call void @_ZN7bv_utilC1ER11ast_manager(ptr noundef nonnull align 8 dereferenceable(24) %14, ptr noundef nonnull align 8 dereferenceable(976) %16)
  %17 = getelementptr inbounds nuw %"class.spacer::lemma_cluster", ptr %7, i32 0, i32 3
  store i32 0, ptr %17, align 8, !tbaa !36
  %18 = getelementptr inbounds nuw %"class.spacer::lemma_cluster", ptr %7, i32 0, i32 5
  %19 = load ptr, ptr %4, align 8, !tbaa !8
  call void @_ZN7obj_refI4expr11ast_managerEC2ERKS2_(ptr noundef nonnull align 8 dereferenceable(16) %18, ptr noundef nonnull align 8 dereferenceable(16) %19)
  %20 = getelementptr inbounds nuw %"class.spacer::lemma_cluster", ptr %7, i32 0, i32 8
  call void @_ZN6vectorIN6spacer13lemma_cluster10lemma_infoELb1EjEC2Ev(ptr noundef nonnull align 8 dereferenceable(8) %20) #3
  %21 = getelementptr inbounds nuw %"class.spacer::lemma_cluster", ptr %7, i32 0, i32 9
  %22 = getelementptr inbounds nuw %"class.spacer::lemma_cluster", ptr %7, i32 0, i32 0
  %23 = load ptr, ptr %22, align 8, !tbaa !12
  invoke void @_ZN6spacer11sem_matcherC1ER11ast_manager(ptr noundef nonnull align 8 dereferenceable(56) %21, ptr noundef nonnull align 8 dereferenceable(976) %23)
          to label %24 unwind label %32

24:                                               ; preds = %2
  %25 = getelementptr inbounds nuw %"class.spacer::lemma_cluster", ptr %7, i32 0, i32 10
  store i32 10, ptr %25, align 8, !tbaa !37
  %26 = getelementptr inbounds nuw %"class.spacer::lemma_cluster", ptr %7, i32 0, i32 5
  %27 = invoke noundef ptr @_ZNK7obj_refI4expr11ast_managerEcvPS0_Ev(ptr noundef nonnull align 8 dereferenceable(16) %26)
          to label %28 unwind label %36

28:                                               ; preds = %24
  %29 = invoke noundef i32 @_ZN6spacer12get_num_varsEP4expr(ptr noundef %27)
          to label %30 unwind label %36

30:                                               ; preds = %28
  %31 = getelementptr inbounds nuw %"class.spacer::lemma_cluster", ptr %7, i32 0, i32 6
  store i32 %29, ptr %31, align 8, !tbaa !38
  ret void

32:                                               ; preds = %2
  %33 = landingpad { ptr, i32 }
          cleanup
  %34 = extractvalue { ptr, i32 } %33, 0
  store ptr %34, ptr %5, align 8
  %35 = extractvalue { ptr, i32 } %33, 1
  store i32 %35, ptr %6, align 4
  br label %40

36:                                               ; preds = %28, %24
  %37 = landingpad { ptr, i32 }
          cleanup
  %38 = extractvalue { ptr, i32 } %37, 0
  store ptr %38, ptr %5, align 8
  %39 = extractvalue { ptr, i32 } %37, 1
  store i32 %39, ptr %6, align 4
  call void @_ZN6spacer11sem_matcherD2Ev(ptr noundef nonnull align 8 dereferenceable(56) %21) #3
  br label %40

40:                                               ; preds = %36, %32
  call void @_ZN6vectorIN6spacer13lemma_cluster10lemma_infoELb1EjED2Ev(ptr noundef nonnull align 8 dereferenceable(8) %20) #3
  call void @_ZN7obj_refI4expr11ast_managerED2Ev(ptr noundef nonnull align 8 dereferenceable(16) %18) #3
  br label %41

41:                                               ; preds = %40
  %42 = load ptr, ptr %5, align 8
  %43 = load i32, ptr %6, align 4
  %44 = insertvalue { ptr, i32 } poison, ptr %42, 0
  %45 = insertvalue { ptr, i32 } %44, i32 %43, 1
  resume { ptr, i32 } %45
}