; Function Attrs: mustprogress uwtable
define hidden void @_ZN6spacer13lemma_clusterC2ERK7obj_refI4expr11ast_managerE(ptr noundef nonnull align 8 dereferenceable(148) initializes((0, 8)) %0, ptr noundef nonnull readonly align 8 captures(none) dereferenceable(16) %1) unnamed_addr #3 align 2 personality ptr @__gxx_personality_v0 {
  %3 = getelementptr inbounds nuw i8, ptr %1, i64 8
  %4 = load ptr, ptr %3, align 8, !tbaa !3
  store ptr %4, ptr %0, align 8, !tbaa !10
  %5 = getelementptr inbounds nuw i8, ptr %0, i64 8
  tail call void @_ZN10arith_utilC1ER11ast_manager(ptr noundef nonnull align 8 dereferenceable(16) %5, ptr noundef nonnull align 8 dereferenceable(976) %4)
  %6 = getelementptr inbounds nuw i8, ptr %0, i64 24
  %7 = load ptr, ptr %0, align 8, !tbaa !11
  tail call void @_ZN7bv_utilC1ER11ast_manager(ptr noundef nonnull align 8 dereferenceable(24) %6, ptr noundef nonnull align 8 dereferenceable(976) %7)
  %8 = getelementptr inbounds nuw i8, ptr %0, i64 48
  store i32 0, ptr %8, align 8, !tbaa !33
  %9 = getelementptr inbounds nuw i8, ptr %0, i64 56
  %10 = load ptr, ptr %1, align 8, !tbaa !34
  store ptr %10, ptr %9, align 8, !tbaa !34
  %11 = getelementptr inbounds nuw i8, ptr %0, i64 64
  %12 = load ptr, ptr %3, align 8, !tbaa !3
  store ptr %12, ptr %11, align 8, !tbaa !10
  %.not.i.i = icmp eq ptr %10, null
  br i1 %.not.i.i, label %_ZN7obj_refI4expr11ast_managerEC2ERKS2_.exit, label %_ZN11ast_manager7inc_refEP3ast.exit.i.i

_ZN11ast_manager7inc_refEP3ast.exit.i.i:          ; preds = %2
  %13 = getelementptr inbounds nuw i8, ptr %10, i64 8
  %14 = load i32, ptr %13, align 4, !tbaa !35
  %15 = add i32 %14, 1
  store i32 %15, ptr %13, align 4, !tbaa !35
  br label %_ZN7obj_refI4expr11ast_managerEC2ERKS2_.exit

_ZN7obj_refI4expr11ast_managerEC2ERKS2_.exit:     ; preds = %2, %_ZN11ast_manager7inc_refEP3ast.exit.i.i
  %16 = getelementptr inbounds nuw i8, ptr %0, i64 80
  store ptr null, ptr %16, align 8, !tbaa !37
  %17 = getelementptr inbounds nuw i8, ptr %0, i64 88
  %18 = load ptr, ptr %0, align 8, !tbaa !11
  invoke void @_ZN6spacer11sem_matcherC1ER11ast_manager(ptr noundef nonnull align 8 dereferenceable(56) %17, ptr noundef nonnull align 8 dereferenceable(976) %18)
          to label %19 unwind label %25

19:                                               ; preds = %_ZN7obj_refI4expr11ast_managerEC2ERKS2_.exit
  %20 = getelementptr inbounds nuw i8, ptr %0, i64 144
  store i32 10, ptr %20, align 8, !tbaa !38
  %21 = load ptr, ptr %9, align 8, !tbaa !34
  %22 = invoke noundef i32 @_ZN6spacer12get_num_varsEP4expr(ptr noundef %21)
          to label %23 unwind label %27

23:                                               ; preds = %19
  %24 = getelementptr inbounds nuw i8, ptr %0, i64 72
  store i32 %22, ptr %24, align 8, !tbaa !39
  ret void

25:                                               ; preds = %_ZN7obj_refI4expr11ast_managerEC2ERKS2_.exit
  %26 = landingpad { ptr, i32 }
          cleanup
  br label %29

27:                                               ; preds = %19
  %28 = landingpad { ptr, i32 }
          cleanup
  tail call void @_ZN6spacer11sem_matcherD2Ev(ptr noundef nonnull align 8 dereferenceable(56) %17) #20
  br label %29

29:                                               ; preds = %27, %25
  %.pn = phi { ptr, i32 } [ %28, %27 ], [ %26, %25 ]
  tail call void @_ZN6vectorIN6spacer13lemma_cluster10lemma_infoELb1EjED2Ev(ptr noundef nonnull align 8 dereferenceable(8) %16) #20
  tail call void @_ZN7obj_refI4expr11ast_managerED2Ev(ptr noundef nonnull align 8 dereferenceable(16) %9) #20
  resume { ptr, i32 } %.pn
}